target datalayout = "e-m:e-p270:32:32-p271:32:32-p272:64:64-i64:64-i128:128-f80:128-n8:16:32:64-S128"
target triple = "x86_64-pc-linux-gnu"

%struct.zbee_zcl_packet = type { i8, i8, i8, i8, i16, i8, i8 }
%struct._packet_info = type { ptr, ptr, i32, i32, %struct.nstime_t, %struct.nstime_t, %struct.nstime_t, i8, ptr, ptr, ptr, ptr, %struct._address, %struct._address, %struct._address, %struct._address, %struct._address, %struct._address, i32, ptr, i8, [3 x i8], %struct.anon, i32, i32, i32, i32, ptr, i8, ptr, ptr, i16, i16, i32, i32, i16, i32, i32, ptr, ptr, ptr, i8, i8, i16, i16, i16, i32, i16, i16, ptr, ptr, ptr, ptr, ptr, i32, i32 }
%struct.nstime_t = type { i64, i32 }
%struct._address = type { i32, i32, ptr, ptr }
%struct.anon = type { i8, [3 x i8] }

@hf_zbee_zcl_level_control_level = internal global i32 0, align 4
@hf_zbee_zcl_level_control_move_mode = internal global i32 0, align 4
@hf_zbee_zcl_level_control_rate = internal global i32 0, align 4
@hf_zbee_zcl_level_control_step_mode = internal global i32 0, align 4
@hf_zbee_zcl_level_control_step_size = internal global i32 0, align 4
@hf_zbee_zcl_level_control_transit_time = internal global i32 0, align 4
@hf_zbee_zcl_level_control_srv_rx_cmd_id = internal global i32 0, align 4
@ett_zbee_zcl_level_control = internal global i32 0, align 4
@.str.1189 = private unnamed_addr constant [12 x i8] c"%s, Seq: %u\00", align 1
@.str.1190 = private unnamed_addr constant [16 x i8] c"Unknown Command\00", align 1
@.str.1241 = private unnamed_addr constant [8 x i8] c"Payload\00", align 1

; Function Attrs: null_pointer_is_valid sspstrong uwtable
define internal void @dissect_zcl_level_control_step(ptr noundef %0, ptr noundef %1, ptr noundef %2) #0 {
  %4 = alloca ptr, align 8
  %5 = alloca ptr, align 8
  %6 = alloca ptr, align 8
  store ptr %0, ptr %4, align 8
  store ptr %1, ptr %5, align 8
  store ptr %2, ptr %6, align 8
  %7 = load ptr, ptr %5, align 8
  %8 = load i32, ptr @hf_zbee_zcl_level_control_step_mode, align 4
  %9 = load ptr, ptr %4, align 8
  %10 = load ptr, ptr %6, align 8
  %11 = load i32, ptr %10, align 4
  %12 = call ptr @proto_tree_add_item(ptr noundef %7, i32 noundef %8, ptr noundef %9, i32 noundef %11, i32 noundef 1, i32 noundef -2147483648)
  %13 = load ptr, ptr %6, align 8
  %14 = load i32, ptr %13, align 4
  %15 = add i32 %14, 1
  store i32 %15, ptr %13, align 4
  %16 = load ptr, ptr %5, align 8
  %17 = load i32, ptr @hf_zbee_zcl_level_control_step_size, align 4
  %18 = load ptr, ptr %4, align 8
  %19 = load ptr, ptr %6, align 8
  %20 = load i32, ptr %19, align 4
  %21 = call ptr @proto_tree_add_item(ptr noundef %16, i32 noundef %17, ptr noundef %18, i32 noundef %20, i32 noundef 1, i32 noundef -2147483648)
  %22 = load ptr, ptr %6, align 8
  %23 = load i32, ptr %22, align 4
  %24 = add i32 %23, 1
  store i32 %24, ptr %22, align 4
  %25 = load ptr, ptr %5, align 8
  %26 = load i32, ptr @hf_zbee_zcl_level_control_transit_time, align 4
  %27 = load ptr, ptr %4, align 8
  %28 = load ptr, ptr %6, align 8
  %29 = load i32, ptr %28, align 4
  %30 = call ptr @proto_tree_add_item(ptr noundef %25, i32 noundef %26, ptr noundef %27, i32 noundef %29, i32 noundef 2, i32 noundef -2147483648)
  %31 = load ptr, ptr %6, align 8
  %32 = load i32, ptr %31, align 4
  %33 = add i32 %32, 2
  store i32 %33, ptr %31, align 4
  ret void
}

; Function Attrs: null_pointer_is_valid sspstrong uwtable
define internal void @dissect_zcl_level_control_move(ptr noundef %0, ptr noundef %1, ptr noundef %2) #0 {
  %4 = alloca ptr, align 8
  %5 = alloca ptr, align 8
  %6 = alloca ptr, align 8
  store ptr %0, ptr %4, align 8
  store ptr %1, ptr %5, align 8
  store ptr %2, ptr %6, align 8
  %7 = load ptr, ptr %5, align 8
  %8 = load i32, ptr @hf_zbee_zcl_level_control_move_mode, align 4
  %9 = load ptr, ptr %4, align 8
  %10 = load ptr, ptr %6, align 8
  %11 = load i32, ptr %10, align 4
  %12 = call ptr @proto_tree_add_item(ptr noundef %7, i32 noundef %8, ptr noundef %9, i32 noundef %11, i32 noundef 1, i32 noundef -2147483648)
  %13 = load ptr, ptr %6, align 8
  %14 = load i32, ptr %13, align 4
  %15 = add i32 %14, 1
  store i32 %15, ptr %13, align 4
  %16 = load ptr, ptr %5, align 8
  %17 = load i32, ptr @hf_zbee_zcl_level_control_rate, align 4
  %18 = load ptr, ptr %4, align 8
  %19 = load ptr, ptr %6, align 8
  %20 = load i32, ptr %19, align 4
  %21 = call ptr @proto_tree_add_item(ptr noundef %16, i32 noundef %17, ptr noundef %18, i32 noundef %20, i32 noundef 1, i32 noundef -2147483648)
  %22 = load ptr, ptr %6, align 8
  %23 = load i32, ptr %22, align 4
  %24 = add i32 %23, 1
  store i32 %24, ptr %22, align 4
  ret void
}

; Function Attrs: null_pointer_is_valid sspstrong uwtable
define internal void @dissect_zcl_level_control_move_to_level(ptr noundef %0, ptr noundef %1, ptr noundef %2) #0 {
  %4 = alloca ptr, align 8
  %5 = alloca ptr, align 8
  %6 = alloca ptr, align 8
  store ptr %0, ptr %4, align 8
  store ptr %1, ptr %5, align 8
  store ptr %2, ptr %6, align 8
  %7 = load ptr, ptr %5, align 8
  %8 = load i32, ptr @hf_zbee_zcl_level_control_level, align 4
  %9 = load ptr, ptr %4, align 8
  %10 = load ptr, ptr %6, align 8
  %11 = load i32, ptr %10, align 4
  %12 = call ptr @proto_tree_add_item(ptr noundef %7, i32 noundef %8, ptr noundef %9, i32 noundef %11, i32 noundef 1, i32 noundef -2147483648)
  %13 = load ptr, ptr %6, align 8
  %14 = load i32, ptr %13, align 4
  %15 = add i32 %14, 1
  store i32 %15, ptr %13, align 4
  %16 = load ptr, ptr %5, align 8
  %17 = load i32, ptr @hf_zbee_zcl_level_control_transit_time, align 4
  %18 = load ptr, ptr %4, align 8
  %19 = load ptr, ptr %6, align 8
  %20 = load i32, ptr %19, align 4
  %21 = call ptr @proto_tree_add_item(ptr noundef %16, i32 noundef %17, ptr noundef %18, i32 noundef %20, i32 noundef 2, i32 noundef -2147483648)
  %22 = load ptr, ptr %6, align 8
  %23 = load i32, ptr %22, align 4
  %24 = add i32 %23, 2
  store i32 %24, ptr %22, align 4
  ret void
}

; Function Attrs: null_pointer_is_valid sspstrong uwtable
define internal i32 @dissect_zbee_zcl_level_control(ptr noundef %0, ptr noundef %1, ptr noundef %2, ptr noundef %3) #0 {
  %5 = alloca i32, align 4
  %6 = alloca ptr, align 8
  %7 = alloca ptr, align 8
  %8 = alloca ptr, align 8
  %9 = alloca ptr, align 8
  %10 = alloca ptr, align 8
  %11 = alloca ptr, align 8
  %12 = alloca i32, align 4
  %13 = alloca i8, align 1
  %14 = alloca i32, align 4
  %15 = alloca i32, align 4
  store ptr %0, ptr %6, align 8
  store ptr %1, ptr %7, align 8
  store ptr %2, ptr %8, align 8
  store ptr %3, ptr %9, align 8
  call void @llvm.lifetime.start.p0(i64 8, ptr %10) #7
  call void @llvm.lifetime.start.p0(i64 8, ptr %11) #7
  call void @llvm.lifetime.start.p0(i64 4, ptr %12) #7
  store i32 0, ptr %12, align 4
  call void @llvm.lifetime.start.p0(i64 1, ptr %13) #7
  call void @llvm.lifetime.start.p0(i64 4, ptr %14) #7
  %16 = load ptr, ptr %9, align 8
  %17 = icmp eq ptr %16, null
  br i1 %17, label %18, label %19

18:                                               ; preds = %4
  store i32 0, ptr %5, align 4
  store i32 1, ptr %15, align 4
  br label %77

19:                                               ; preds = %4
  %20 = load ptr, ptr %9, align 8
  store ptr %20, ptr %11, align 8
  %21 = load ptr, ptr %11, align 8
  %22 = getelementptr inbounds nuw %struct.zbee_zcl_packet, ptr %21, i32 0, i32 6
  %23 = load i8, ptr %22, align 1
  store i8 %23, ptr %13, align 1
  %24 = load ptr, ptr %11, align 8
  %25 = getelementptr inbounds nuw %struct.zbee_zcl_packet, ptr %24, i32 0, i32 1
  %26 = load i8, ptr %25, align 1, !range !6, !noundef !7
  %27 = trunc i8 %26 to i1
  %28 = zext i1 %27 to i32
  %29 = icmp eq i32 %28, 0
  br i1 %29, label %30, label %74

30:                                               ; preds = %19
  %31 = load ptr, ptr %7, align 8
  %32 = getelementptr inbounds nuw %struct._packet_info, ptr %31, i32 0, i32 1
  %33 = load ptr, ptr %32, align 8
  %34 = load i8, ptr %13, align 1
  %35 = zext i8 %34 to i32
  %36 = call ptr @val_to_str_const(i32 noundef %35, ptr noundef @zbee_zcl_level_control_srv_rx_cmd_names, ptr noundef @.str.1190)
  %37 = load ptr, ptr %11, align 8
  %38 = getelementptr inbounds nuw %struct.zbee_zcl_packet, ptr %37, i32 0, i32 5
  %39 = load i8, ptr %38, align 2
  %40 = zext i8 %39 to i32
  call void (ptr, i32, ptr, ...) @col_append_fstr(ptr noundef %33, i32 noundef 25, ptr noundef @.str.1189, ptr noundef %36, i32 noundef %40)
  %41 = load ptr, ptr %8, align 8
  %42 = load i32, ptr @hf_zbee_zcl_level_control_srv_rx_cmd_id, align 4
  %43 = load ptr, ptr %6, align 8
  %44 = load i32, ptr %12, align 4
  %45 = call ptr @proto_tree_add_item(ptr noundef %41, i32 noundef %42, ptr noundef %43, i32 noundef %44, i32 noundef 1, i32 noundef -2147483648)
  %46 = load ptr, ptr %6, align 8
  %47 = load i32, ptr %12, align 4
  %48 = add i32 %47, 1
  store i32 %48, ptr %12, align 4
  %49 = call i32 @tvb_reported_length_remaining(ptr noundef %46, i32 noundef %48)
  store i32 %49, ptr %14, align 4
  %50 = load i32, ptr %14, align 4
  %51 = icmp sgt i32 %50, 0
  br i1 %51, label %52, label %73

52:                                               ; preds = %30
  %53 = load ptr, ptr %8, align 8
  %54 = load ptr, ptr %6, align 8
  %55 = load i32, ptr %12, align 4
  %56 = load i32, ptr %14, align 4
  %57 = load i32, ptr @ett_zbee_zcl_level_control, align 4
  %58 = call ptr @proto_tree_add_subtree(ptr noundef %53, ptr noundef %54, i32 noundef %55, i32 noundef %56, i32 noundef %57, ptr noundef null, ptr noundef @.str.1241)
  store ptr %58, ptr %10, align 8
  %59 = load i8, ptr %13, align 1
  %60 = zext i8 %59 to i32
  switch i32 %60, label %71 [
    i32 0, label %61
    i32 4, label %61
    i32 1, label %64
    i32 5, label %64
    i32 2, label %67
    i32 6, label %67
    i32 3, label %70
    i32 7, label %70
  ]

61:                                               ; preds = %52, %52
  %62 = load ptr, ptr %6, align 8
  %63 = load ptr, ptr %10, align 8
  call void @dissect_zcl_level_control_move_to_level(ptr noundef %62, ptr noundef %63, ptr noundef %12)
  br label %72

64:                                               ; preds = %52, %52
  %65 = load ptr, ptr %6, align 8
  %66 = load ptr, ptr %10, align 8
  call void @dissect_zcl_level_control_move(ptr noundef %65, ptr noundef %66, ptr noundef %12)
  br label %72

67:                                               ; preds = %52, %52
  %68 = load ptr, ptr %6, align 8
  %69 = load ptr, ptr %10, align 8
  call void @dissect_zcl_level_control_step(ptr noundef %68, ptr noundef %69, ptr noundef %12)
  br label %72

70:                                               ; preds = %52, %52
  br label %71

71:                                               ; preds = %52, %70
  br label %72

72:                                               ; preds = %71, %67, %64, %61
  br label %73

73:                                               ; preds = %72, %30
  br label %74

74:                                               ; preds = %73, %19
  %75 = load ptr, ptr %6, align 8
  %76 = call i32 @tvb_captured_length(ptr noundef %75)
  store i32 %76, ptr %5, align 4
  store i32 1, ptr %15, align 4
  br label %77

77:                                               ; preds = %74, %18
  call void @llvm.lifetime.end.p0(i64 4, ptr %14) #7
  call void @llvm.lifetime.end.p0(i64 1, ptr %13) #7
  call void @llvm.lifetime.end.p0(i64 4, ptr %12) #7
  call void @llvm.lifetime.end.p0(i64 8, ptr %11) #7
  call void @llvm.lifetime.end.p0(i64 8, ptr %10) #7
  %78 = load i32, ptr %5, align 4
  ret i32 %78
}