; Function Attrs: null_pointer_is_valid sspstrong uwtable
define internal i32 @dissect_zbee_zcl_level_control(ptr noundef %0, ptr noundef readonly captures(none) %1, ptr noundef %2, ptr noundef readonly captures(address_is_null) %3) #0 {
  %5 = icmp eq ptr %3, null
  br i1 %5, label %46, label %6

6:                                                ; preds = %4
  %7 = getelementptr inbounds nuw i8, ptr %3, i64 1
  %8 = load i8, ptr %7, align 1, !range !6, !noundef !7
  %9 = icmp eq i8 %8, 0
  br i1 %9, label %10, label %44

10:                                               ; preds = %6
  %11 = getelementptr inbounds nuw i8, ptr %3, i64 7
  %12 = load i8, ptr %11, align 1
  %13 = getelementptr inbounds nuw i8, ptr %1, i64 8
  %14 = load ptr, ptr %13, align 8
  %15 = zext i8 %12 to i32
  %16 = tail call ptr @val_to_str_const(i32 noundef %15, ptr noundef nonnull @zbee_zcl_level_control_srv_rx_cmd_names, ptr noundef nonnull @.str.1190)
  %17 = getelementptr inbounds nuw i8, ptr %3, i64 6
  %18 = load i8, ptr %17, align 2
  %19 = zext i8 %18 to i32
  tail call void (ptr, i32, ptr, ...) @col_append_fstr(ptr noundef %14, i32 noundef 25, ptr noundef nonnull @.str.1189, ptr noundef %16, i32 noundef %19)
  %20 = load i32, ptr @hf_zbee_zcl_level_control_srv_rx_cmd_id, align 4
  %21 = tail call ptr @proto_tree_add_item(ptr noundef %2, i32 noundef %20, ptr noundef %0, i32 noundef 0, i32 noundef 1, i32 noundef -2147483648)
  %22 = tail call i32 @tvb_reported_length_remaining(ptr noundef %0, i32 noundef 1)
  %23 = icmp sgt i32 %22, 0
  br i1 %23, label %24, label %44

24:                                               ; preds = %10
  %25 = load i32, ptr @ett_zbee_zcl_level_control, align 4
  %26 = tail call ptr @proto_tree_add_subtree(ptr noundef %2, ptr noundef %0, i32 noundef 1, i32 noundef %22, i32 noundef %25, ptr noundef null, ptr noundef nonnull @.str.1241)
  switch i8 %12, label %44 [
    i8 0, label %27
    i8 4, label %27
    i8 1, label %32
    i8 5, label %32
    i8 2, label %37
    i8 6, label %37
  ]

27:                                               ; preds = %24, %24
  %28 = load i32, ptr @hf_zbee_zcl_level_control_level, align 4
  %29 = tail call ptr @proto_tree_add_item(ptr noundef %26, i32 noundef %28, ptr noundef %0, i32 noundef 1, i32 noundef 1, i32 noundef -2147483648)
  %30 = load i32, ptr @hf_zbee_zcl_level_control_transit_time, align 4
  %31 = tail call ptr @proto_tree_add_item(ptr noundef %26, i32 noundef %30, ptr noundef %0, i32 noundef 2, i32 noundef 2, i32 noundef -2147483648)
  br label %44

32:                                               ; preds = %24, %24
  %33 = load i32, ptr @hf_zbee_zcl_level_control_move_mode, align 4
  %34 = tail call ptr @proto_tree_add_item(ptr noundef %26, i32 noundef %33, ptr noundef %0, i32 noundef 1, i32 noundef 1, i32 noundef -2147483648)
  %35 = load i32, ptr @hf_zbee_zcl_level_control_rate, align 4
  %36 = tail call ptr @proto_tree_add_item(ptr noundef %26, i32 noundef %35, ptr noundef %0, i32 noundef 2, i32 noundef 1, i32 noundef -2147483648)
  br label %44

37:                                               ; preds = %24, %24
  %38 = load i32, ptr @hf_zbee_zcl_level_control_step_mode, align 4
  %39 = tail call ptr @proto_tree_add_item(ptr noundef %26, i32 noundef %38, ptr noundef %0, i32 noundef 1, i32 noundef 1, i32 noundef -2147483648)
  %40 = load i32, ptr @hf_zbee_zcl_level_control_step_size, align 4
  %41 = tail call ptr @proto_tree_add_item(ptr noundef %26, i32 noundef %40, ptr noundef %0, i32 noundef 2, i32 noundef 1, i32 noundef -2147483648)
  %42 = load i32, ptr @hf_zbee_zcl_level_control_transit_time, align 4
  %43 = tail call ptr @proto_tree_add_item(ptr noundef %26, i32 noundef %42, ptr noundef %0, i32 noundef 3, i32 noundef 2, i32 noundef -2147483648)
  br label %44

44:                                               ; preds = %10, %24, %37, %32, %27, %6
  %45 = tail call i32 @tvb_captured_length(ptr noundef %0)
  br label %46

46:                                               ; preds = %4, %44
  %.0 = phi i32 [ %45, %44 ], [ 0, %4 ]
  ret i32 %.0
}